; Function Attrs: mustprogress nounwind uwtable
define hidden void @_ZN18AbstractDumpWriter8write_u4Ej(ptr noundef nonnull align 8 dereferenceable(34) %0, i32 noundef %1) local_unnamed_addr #3 align 2 {
_ZN5Bytes11put_Java_u4EPhj.exit:
  %2 = alloca i32, align 4
  %3 = tail call noundef i32 @llvm.bswap.i32(i32 %1)
  store i32 %3, ptr %2, align 4
  %4 = getelementptr inbounds i8, ptr %0, i64 16
  %5 = load i64, ptr %4, align 8
  %6 = getelementptr inbounds i8, ptr %0, i64 24
  %7 = load i64, ptr %6, align 8
  %8 = sub i64 %5, %7
  %9 = icmp ugt i64 %8, 3
  br i1 %9, label %10, label %16

10:                                               ; preds = %_ZN5Bytes11put_Java_u4EPhj.exit
  %11 = getelementptr inbounds i8, ptr %0, i64 8
  %12 = load ptr, ptr %11, align 8
  %13 = getelementptr inbounds i8, ptr %12, i64 %7
  store i32 %3, ptr %13, align 1
  %14 = load i64, ptr %6, align 8
  %15 = add i64 %14, 4
  store i64 %15, ptr %6, align 8
  br label %20

16:                                               ; preds = %_ZN5Bytes11put_Java_u4EPhj.exit
  %17 = load ptr, ptr %0, align 8
  %18 = getelementptr inbounds i8, ptr %17, i64 16
  %19 = load ptr, ptr %18, align 8
  call void %19(ptr noundef nonnull align 8 dereferenceable(34) %0, ptr noundef nonnull %2, i64 noundef 4) #19
  br label %20

20:                                               ; preds = %10, %16
  ret void
}